target datalayout = "e-m:e-p270:32:32-p271:32:32-p272:64:64-i64:64-i128:128-f80:128-n8:16:32:64-S128"
target triple = "x86_64-pc-linux-gnu"

%struct.H5O_storage_t = type { i32, %union.anon.5 }
%union.anon.5 = type { %struct.H5O_storage_virtual_t }
%struct.H5O_storage_virtual_t = type { %struct.H5HG_t, i64, ptr, i64, [32 x i64], i32, i64, i64, i64, i8 }
%struct.H5HG_t = type { i64, i64 }
%struct.H5O_storage_contig_t = type { i64, i64 }

@H5D_init_g = external global i8, align 1
@H5_libterm_g = external global i8, align 1
@.str.1 = private unnamed_addr constant [103 x i8] c"generated/home/dtcxzyw/WorkSpace/Projects/compilers/llvm-opt-benchmark/bench/hdf5/hdf5/src/H5Dcontig.c\00", align 1
@H5E_DATASET_g = external global i64, align 8
@H5E_CANTFREE_g = external global i64, align 8
@__func__.H5D__contig_delete = private unnamed_addr constant [19 x i8] c"H5D__contig_delete\00", align 1
@.str.9 = private unnamed_addr constant [40 x i8] c"unable to free contiguous storage space\00", align 1

; Function Attrs: nounwind uwtable
define i32 @H5D__contig_delete(ptr noundef %0, ptr noundef %1) #0 {
  %3 = alloca ptr, align 8
  %4 = alloca ptr, align 8
  %5 = alloca i32, align 4
  %6 = alloca i8, align 1
  store ptr %0, ptr %3, align 8, !tbaa !3
  store ptr %1, ptr %4, align 8, !tbaa !58
  call void @llvm.lifetime.start.p0(i64 4, ptr %5) #6
  store i32 0, ptr %5, align 4, !tbaa !10
  call void @llvm.lifetime.start.p0(i64 1, ptr %6) #6
  store i8 0, ptr %6, align 1, !tbaa !12
  %7 = load i8, ptr @H5D_init_g, align 1, !tbaa !12, !range !14, !noundef !15
  %8 = trunc i8 %7 to i1
  br i1 %8, label %13, label %9

9:                                                ; preds = %2
  %10 = load i8, ptr @H5_libterm_g, align 1, !tbaa !12, !range !14, !noundef !15
  %11 = trunc i8 %10 to i1
  %12 = xor i1 %11, true
  br label %13

13:                                               ; preds = %9, %2
  %14 = phi i1 [ true, %2 ], [ %12, %9 ]
  %15 = xor i1 %14, true
  %16 = xor i1 %15, true
  %17 = zext i1 %16 to i32
  %18 = sext i32 %17 to i64
  %19 = call i64 @llvm.expect.i64(i64 %18, i64 1)
  %20 = icmp ne i64 %19, 0
  br i1 %20, label %21, label %54

21:                                               ; preds = %13
  %22 = load ptr, ptr %3, align 8, !tbaa !3
  %23 = load ptr, ptr %4, align 8, !tbaa !58
  %24 = getelementptr inbounds nuw %struct.H5O_storage_t, ptr %23, i32 0, i32 1
  %25 = getelementptr inbounds nuw %struct.H5O_storage_contig_t, ptr %24, i32 0, i32 0
  %26 = load i64, ptr %25, align 8, !tbaa !54
  %27 = load ptr, ptr %4, align 8, !tbaa !58
  %28 = getelementptr inbounds nuw %struct.H5O_storage_t, ptr %27, i32 0, i32 1
  %29 = getelementptr inbounds nuw %struct.H5O_storage_contig_t, ptr %28, i32 0, i32 1
  %30 = load i64, ptr %29, align 8, !tbaa !54
  %31 = call i32 @H5MF_xfree(ptr noundef %22, i32 noundef 3, i64 noundef %26, i64 noundef %30)
  %32 = icmp slt i32 %31, 0
  br i1 %32, label %33, label %52

33:                                               ; preds = %21
  br label %34

34:                                               ; preds = %33
  br label %35

35:                                               ; preds = %34
  br label %36

36:                                               ; preds = %35
  %37 = load i64, ptr @H5E_DATASET_g, align 8, !tbaa !49
  %38 = load i64, ptr @H5E_CANTFREE_g, align 8, !tbaa !49
  %39 = call i32 (ptr, ptr, i32, i64, i64, ptr, ...) @H5E_printf_stack(ptr noundef @.str.1, ptr noundef @__func__.H5D__contig_delete, i32 noundef 353, i64 noundef %37, i64 noundef %38, ptr noundef @.str.9)
  br label %40

40:                                               ; preds = %36
  br label %41

41:                                               ; preds = %40
  store i8 1, ptr %6, align 1, !tbaa !12
  %42 = load i8, ptr %6, align 1, !tbaa !12, !range !14, !noundef !15
  %43 = trunc i8 %42 to i1
  %44 = zext i1 %43 to i8
  store i8 %44, ptr %6, align 1, !tbaa !12
  br label %45

45:                                               ; preds = %41
  br label %46

46:                                               ; preds = %45
  br label %47

47:                                               ; preds = %46
  store i32 -1, ptr %5, align 4, !tbaa !10
  br label %53

48:                                               ; No predecessors!
  br label %49

49:                                               ; preds = %48
  br label %50

50:                                               ; preds = %49
  br label %51

51:                                               ; preds = %50
  br label %52

52:                                               ; preds = %51, %21
  br label %53

53:                                               ; preds = %52, %47
  br label %54

54:                                               ; preds = %53, %13
  %55 = load i32, ptr %5, align 4, !tbaa !10
  call void @llvm.lifetime.end.p0(i64 1, ptr %6) #6
  call void @llvm.lifetime.end.p0(i64 4, ptr %5) #6
  ret i32 %55
}