; Function Attrs: nounwind uwtable
define range(i32 -1, 1) i32 @H5D__contig_delete(ptr noundef %0, ptr noundef readonly captures(none) %1) local_unnamed_addr #0 {
  %3 = load i8, ptr @H5D_init_g, align 1, !tbaa !3, !range !7, !noundef !8
  %4 = trunc nuw i8 %3 to i1
  %5 = load i8, ptr @H5_libterm_g, align 1, !range !7
  %6 = trunc nuw i8 %5 to i1
  %7 = xor i1 %6, true
  %8 = select i1 %4, i1 true, i1 %7
  br i1 %8, label %9, label %20, !prof !9

9:                                                ; preds = %2
  %10 = getelementptr inbounds nuw i8, ptr %1, i64 8
  %11 = load i64, ptr %10, align 8, !tbaa !51
  %12 = getelementptr inbounds nuw i8, ptr %1, i64 16
  %13 = load i64, ptr %12, align 8, !tbaa !51
  %14 = tail call i32 @H5MF_xfree(ptr noundef %0, i32 noundef 3, i64 noundef %11, i64 noundef %13) #9
  %15 = icmp slt i32 %14, 0
  br i1 %15, label %16, label %20

16:                                               ; preds = %9
  %17 = load i64, ptr @H5E_DATASET_g, align 8, !tbaa !48
  %18 = load i64, ptr @H5E_CANTFREE_g, align 8, !tbaa !48
  %19 = tail call i32 (ptr, ptr, i32, i64, i64, ptr, ...) @H5E_printf_stack(ptr noundef nonnull @.str.1, ptr noundef nonnull @__func__.H5D__contig_delete, i32 noundef 353, i64 noundef %17, i64 noundef %18, ptr noundef nonnull @.str.9) #9
  br label %20

20:                                               ; preds = %16, %9, %2
  %.0 = phi i32 [ -1, %16 ], [ 0, %9 ], [ 0, %2 ]
  ret i32 %.0
}